; Function Attrs: mustprogress uwtable
define void @_ZN8proxygen18HTTP2PriorityQueue11rebuildTreeEv(ptr noundef nonnull align 8 dereferenceable(312) %this) local_unnamed_addr #4 align 2 personality ptr @__gxx_personality_v0 {
entry:
  %comb.i.i = alloca %"class.google::base::CheckOpMessageBuilder", align 8
  %_result = alloca %"struct.google::CheckOpString", align 8
  %ref.tmp6 = alloca %"class.google::LogMessageFatal", align 8
  %rebuildCount_ = getelementptr inbounds i8, ptr %this, i64 240
  %0 = load i32, ptr %rebuildCount_, align 8
  %add = add i32 %0, 1
  %1 = load i32, ptr @_ZN8proxygen18HTTP2PriorityQueue13kMaxRebuilds_E, align 4
  %cmp.not.i = icmp ugt i32 %add, %1
  br i1 %cmp.not.i, label %if.else.i, label %while.end

if.else.i:                                        ; preds = %entry
  call void @llvm.lifetime.start.p0(i64 8, ptr nonnull %comb.i.i)
  call void @_ZN6google4base21CheckOpMessageBuilderC1EPKc(ptr noundef nonnull align 8 dereferenceable(8) %comb.i.i, ptr noundef nonnull @.str.36)
  %2 = load ptr, ptr %comb.i.i, align 8
  %call.i1.i.i = invoke noundef nonnull align 8 dereferenceable(8) ptr @_ZNSolsEj(ptr noundef nonnull align 8 dereferenceable(8) %2, i32 noundef %add)
          to label %invoke.cont.i.i unwind label %lpad.i.i

invoke.cont.i.i:                                  ; preds = %if.else.i
  %call2.i.i = invoke noundef ptr @_ZN6google4base21CheckOpMessageBuilder7ForVar2Ev(ptr noundef nonnull align 8 dereferenceable(8) %comb.i.i)
          to label %invoke.cont1.i.i unwind label %lpad.i.i

invoke.cont1.i.i:                                 ; preds = %invoke.cont.i.i
  %call.i2.i.i = invoke noundef nonnull align 8 dereferenceable(8) ptr @_ZNSolsEj(ptr noundef nonnull align 8 dereferenceable(8) %call2.i.i, i32 noundef %1)
          to label %invoke.cont3.i.i unwind label %lpad.i.i

invoke.cont3.i.i:                                 ; preds = %invoke.cont1.i.i
  %call5.i.i = invoke noundef ptr @_ZN6google4base21CheckOpMessageBuilder9NewStringB5cxx11Ev(ptr noundef nonnull align 8 dereferenceable(8) %comb.i.i)
          to label %_ZN6google12Check_LEImplIjjEEPNSt7__cxx1112basic_stringIcSt11char_traitsIcESaIcEEERKT_RKT0_PKc.exit unwind label %lpad.i.i

lpad.i.i:                                         ; preds = %invoke.cont3.i.i, %invoke.cont1.i.i, %invoke.cont.i.i, %if.else.i
  %3 = landingpad { ptr, i32 }
          cleanup
  call void @_ZN6google4base21CheckOpMessageBuilderD1Ev(ptr noundef nonnull align 8 dereferenceable(8) %comb.i.i) #28
  resume { ptr, i32 } %3

_ZN6google12Check_LEImplIjjEEPNSt7__cxx1112basic_stringIcSt11char_traitsIcESaIcEEERKT_RKT0_PKc.exit: ; preds = %invoke.cont3.i.i
  call void @_ZN6google4base21CheckOpMessageBuilderD1Ev(ptr noundef nonnull align 8 dereferenceable(8) %comb.i.i) #28
  call void @llvm.lifetime.end.p0(i64 8, ptr nonnull %comb.i.i)
  store ptr %call5.i.i, ptr %_result, align 8
  %cmp.i.not = icmp eq ptr %call5.i.i, null
  br i1 %cmp.i.not, label %while.end, label %while.body

while.body:                                       ; preds = %_ZN6google12Check_LEImplIjjEEPNSt7__cxx1112basic_stringIcSt11char_traitsIcESaIcEEERKT_RKT0_PKc.exit
  call void @_ZN6google15LogMessageFatalC1EPKciRKNS_13CheckOpStringE(ptr noundef nonnull align 8 dereferenceable(96) %ref.tmp6, ptr noundef nonnull @.str, i32 noundef 720, ptr noundef nonnull align 8 dereferenceable(8) %_result)
  %call7 = invoke noundef nonnull align 8 dereferenceable(8) ptr @_ZN6google10LogMessage6streamEv(ptr noundef nonnull align 8 dereferenceable(96) %ref.tmp6)
          to label %invoke.cont unwind label %lpad

invoke.cont:                                      ; preds = %while.body
  call void @_ZN6google15LogMessageFatalD1Ev(ptr noundef nonnull align 8 dereferenceable(96) %ref.tmp6) #30
  unreachable

lpad:                                             ; preds = %while.body
  %4 = landingpad { ptr, i32 }
          cleanup
  call void @_ZN6google15LogMessageFatalD1Ev(ptr noundef nonnull align 8 dereferenceable(96) %ref.tmp6) #30
  unreachable

while.end:                                        ; preds = %entry, %_ZN6google12Check_LEImplIjjEEPNSt7__cxx1112basic_stringIcSt11char_traitsIcESaIcEEERKT_RKT0_PKc.exit
  %root_ = getelementptr inbounds i8, ptr %this, i64 40
  call void @_ZN8proxygen18HTTP2PriorityQueue4Node14flattenSubtreeEv(ptr noundef nonnull align 8 dereferenceable(200) %root_)
  %5 = load i32, ptr %rebuildCount_, align 8
  %inc = add i32 %5, 1
  store i32 %inc, ptr %rebuildCount_, align 8
  ret void
}